; Function Attrs: nounwind uwtable
define i32 @ossl_ec_GFp_mont_field_mul(ptr noundef readonly captures(none) %0, ptr noundef %1, ptr noundef %2, ptr noundef %3, ptr noundef %4) #1 {
  %6 = getelementptr inbounds nuw i8, ptr %0, i64 120
  %7 = load ptr, ptr %6, align 8, !tbaa !3
  %8 = icmp eq ptr %7, null
  br i1 %8, label %9, label %10

9:                                                ; preds = %5
  tail call void @ERR_new() #4
  tail call void @ERR_set_debug(ptr noundef nonnull @.str, i32 noundef 200, ptr noundef nonnull @__func__.ossl_ec_GFp_mont_field_mul) #4
  tail call void (i32, i32, ptr, ...) @ERR_set_error(i32 noundef 16, i32 noundef 111, ptr noundef null) #4
  br label %12

10:                                               ; preds = %5
  %11 = tail call i32 @BN_mod_mul_montgomery(ptr noundef %1, ptr noundef %2, ptr noundef %3, ptr noundef nonnull %7, ptr noundef %4) #4
  br label %12

12:                                               ; preds = %10, %9
  %.0 = phi i32 [ 0, %9 ], [ %11, %10 ]
  ret i32 %.0
}